(lp0
Vhttp://sfbay.craigslist.org/sfc/apa/4385252885.html
p1
aVhttp://sfbay.craigslist.org/sfc/apa/4383868128.html
p2
aVhttp://sfbay.craigslist.org/sfc/roo/4373779027.html
p3
aVhttp://sfbay.craigslist.org/sfc/sub/4383708383.html
p4
aVhttp://sfbay.craigslist.org/sfc/sub/4383708123.html
p5
aVhttp://sfbay.craigslist.org/sfc/sub/4365267087.html
p6
aVhttp://sfbay.craigslist.org/sfc/roo/4387926063.html
p7
aVhttp://sfbay.craigslist.org/sfc/sub/4387925125.html
p8
aVhttp://sfbay.craigslist.org/sfc/roo/4356361289.html
p9
aVhttp://sfbay.craigslist.org/sfc/roo/4379618572.html
p10
aVhttp://sfbay.craigslist.org/sfc/sha/4387359516.html
p11
aVhttp://sfbay.craigslist.org/sfc/sub/4387329761.html
p12
aVhttp://sfbay.craigslist.org/sfc/roo/4372687217.html
p13
aVhttp://sfbay.craigslist.org/sfc/roo/4387170019.html
p14
aVhttp://sfbay.craigslist.org/sfc/apa/4387068621.html
p15
aVhttp://sfbay.craigslist.org/sfc/sub/4365262196.html
p16
aVhttp://sfbay.craigslist.org/sfc/roo/4387077182.html
p17
aVhttp://sfbay.craigslist.org/sfc/roo/4387125762.html
p18
aVhttp://sfbay.craigslist.org/sfc/apa/4383714394.html
p19
aVhttp://sfbay.craigslist.org/sfc/roo/4377197556.html
p20
aVhttp://sfbay.craigslist.org/sfc/roo/4386941002.html
p21
aVhttp://sfbay.craigslist.org/sfc/apa/4386914902.html
p22
aVhttp://sfbay.craigslist.org/sfc/sha/4386499239.html
p23
aVhttp://sfbay.craigslist.org/sfc/roo/4386300762.html
p24
aVhttp://sfbay.craigslist.org/sfc/roo/4358486287.html
p25
aVhttp://sfbay.craigslist.org/sfc/apa/4386143947.html
p26
aVhttp://sfbay.craigslist.org/sfc/roo/4362064159.html
p27
aVhttp://sfbay.craigslist.org/sfc/sub/4381377633.html
p28
aVhttp://sfbay.craigslist.org/sfc/apa/4386046891.html
p29
aVhttp://sfbay.craigslist.org/sfc/roo/4385940073.html
p30
aVhttp://sfbay.craigslist.org/sfc/roo/4385799633.html
p31
aVhttp://sfbay.craigslist.org/sfc/apa/4364748485.html
p32
aVhttp://sfbay.craigslist.org/sfc/roo/4385548270.html
p33
aVhttp://sfbay.craigslist.org/sfc/apa/4373342282.html
p34
aVhttp://sfbay.craigslist.org/sfc/roo/4378206179.html
p35
aVhttp://sfbay.craigslist.org/sfc/roo/4385749571.html
p36
aVhttp://sfbay.craigslist.org/sfc/apa/4385499234.html
p37
aVhttp://sfbay.craigslist.org/sfc/apa/4385505264.html
p38
aVhttp://sfbay.craigslist.org/sfc/roo/4358128833.html
p39
aVhttp://sfbay.craigslist.org/sfc/apa/4353968176.html
p40
aVhttp://sfbay.craigslist.org/sfc/roo/4385497720.html
p41
aVhttp://sfbay.craigslist.org/sfc/sub/4385506382.html
p42
aVhttp://sfbay.craigslist.org/sfc/roo/4385498305.html
p43
aVhttp://sfbay.craigslist.org/sfc/apa/4343543479.html
p44
aVhttp://sfbay.craigslist.org/sfc/apa/4347863688.html
p45
aVhttp://sfbay.craigslist.org/sfc/roo/4382016052.html
p46
aVhttp://sfbay.craigslist.org/sfc/apa/4385260777.html
p47
aVhttp://sfbay.craigslist.org/sfc/roo/4385265886.html
p48
aVhttp://sfbay.craigslist.org/sfc/roo/4346483338.html
p49
aVhttp://sfbay.craigslist.org/sfc/sub/4384921205.html
p50
aVhttp://sfbay.craigslist.org/sfc/roo/4360580843.html
p51
aVhttp://sfbay.craigslist.org/sfc/sub/4369093999.html
p52
aVhttp://sfbay.craigslist.org/sfc/roo/4384807945.html
p53
aVhttp://sfbay.craigslist.org/sfc/roo/4354483786.html
p54
aVhttp://sfbay.craigslist.org/sfc/roo/4384555361.html
p55
aVhttp://sfbay.craigslist.org/sfc/sub/4384406020.html
p56
aVhttp://sfbay.craigslist.org/sfc/sub/4384402578.html
p57
aVhttp://sfbay.craigslist.org/sfc/apa/4384416128.html
p58
aVhttp://sfbay.craigslist.org/sfc/apa/4384390098.html
p59
aVhttp://sfbay.craigslist.org/sfc/roo/4384213182.html
p60
aVhttp://sfbay.craigslist.org/sfc/roo/4383991836.html
p61
aVhttp://sfbay.craigslist.org/sfc/apa/4383862592.html
p62
aVhttp://sfbay.craigslist.org/sfc/apa/4383843975.html
p63
aVhttp://sfbay.craigslist.org/sfc/roo/4383667863.html
p64
aVhttp://sfbay.craigslist.org/sfc/sub/4383739910.html
p65
aVhttp://sfbay.craigslist.org/sfc/roo/4383301946.html
p66
aVhttp://sfbay.craigslist.org/sfc/apa/4383182707.html
p67
aVhttp://sfbay.craigslist.org/sfc/apa/4383220336.html
p68
aVhttp://sfbay.craigslist.org/sfc/sub/4383131264.html
p69
aVhttp://sfbay.craigslist.org/sfc/sub/4382995125.html
p70
aVhttp://sfbay.craigslist.org/sfc/sub/4372197703.html
p71
aVhttp://sfbay.craigslist.org/sfc/roo/4382802331.html
p72
aVhttp://sfbay.craigslist.org/sfc/apa/4373567307.html
p73
aVhttp://sfbay.craigslist.org/sfc/roo/4382663948.html
p74
aVhttp://sfbay.craigslist.org/sfc/roo/4382156697.html
p75
aVhttp://sfbay.craigslist.org/sfc/apa/4382052672.html
p76
aVhttp://sfbay.craigslist.org/sfc/roo/4381734141.html
p77
aVhttp://sfbay.craigslist.org/sfc/roo/4381681223.html
p78
aVhttp://sfbay.craigslist.org/sfc/sub/4381682164.html
p79
aVhttp://sfbay.craigslist.org/sfc/roo/4372282250.html
p80
aVhttp://sfbay.craigslist.org/sfc/roo/4381408576.html
p81
aVhttp://sfbay.craigslist.org/sfc/sub/4381161340.html
p82
aVhttp://sfbay.craigslist.org/sfc/roo/4375511212.html
p83
aVhttp://sfbay.craigslist.org/sfc/roo/4381021227.html
p84
aVhttp://sfbay.craigslist.org/sfc/roo/4380866407.html
p85
aVhttp://sfbay.craigslist.org/sfc/apa/4380674925.html
p86
aVhttp://sfbay.craigslist.org/sfc/sub/4380495548.html
p87
aVhttp://sfbay.craigslist.org/sfc/roo/4380528489.html
p88
aVhttp://sfbay.craigslist.org/sfc/apa/4371071604.html
p89
aVhttp://sfbay.craigslist.org/sfc/apa/4365950339.html
p90
aVhttp://sfbay.craigslist.org/sfc/sha/4368971437.html
p91
aVhttp://sfbay.craigslist.org/sfc/sub/4379858084.html
p92
aVhttp://sfbay.craigslist.org/sfc/roo/4379622266.html
p93
aVhttp://sfbay.craigslist.org/sfc/roo/4368953263.html
p94
aVhttp://sfbay.craigslist.org/sfc/roo/4372441157.html
p95
aVhttp://sfbay.craigslist.org/sfc/roo/4379229912.html
p96
aVhttp://sfbay.craigslist.org/sfc/sub/4379100517.html
p97
aVhttp://sfbay.craigslist.org/sfc/sub/4378587996.html
p98
aVhttp://sfbay.craigslist.org/sfc/roo/4378257119.html
p99
aVhttp://sfbay.craigslist.org/sfc/sub/4378171186.html
p100
a.