(lp0
Vhttp://sfbay.craigslist.org/sfc/apa/4389846031.html
p1
aS'zxjpz-4383906370@hous.craigslist.org'
p2
aVhttp://sfbay.craigslist.org/sfc/apa/4411250027.html
p3
aVhttp://sfbay.craigslist.org/sfc/sub/4393749180.html
p4
aVhttp://sfbay.craigslist.org/sfc/roo/4410914629.html
p5
aS'ps9dd-4396582573@hous.craigslist.org'
p6
aVhttp://sfbay.craigslist.org/sfc/roo/4401031464.html
p7
aVhttp://sfbay.craigslist.org/sfc/roo/4405946012.html
p8
aS'zwgbf-4406462367@hous.craigslist.org'
p9
aS'gbq3k-4401018871@hous.craigslist.org'
p10
aVhttp://sfbay.craigslist.org/sfc/roo/4403046811.html
p11
aVhttp://sfbay.craigslist.org/sfc/sub/4411894502.html
p12
aVhttp://sfbay.craigslist.org/sfc/sub/4399899051.html
p13
aVhttp://sfbay.craigslist.org/sfc/apa/4395681514.html
p14
aVhttp://sfbay.craigslist.org/sfc/roo/4407276514.html
p15
aVhttp://sfbay.craigslist.org/sfc/roo/4358486287.html
p16
aVhttp://sfbay.craigslist.org/sfc/roo/4379618572.html
p17
aVhttp://sfbay.craigslist.org/sfc/sub/4392606611.html
p18
aS'wqdqj-4391562658@hous.craigslist.org'
p19
aS'jdecker@amsiemail.com'
p20
aS'zqzw8-4409566417@hous.craigslist.org'
p21
aS'j6x3n-4410127564@hous.craigslist.org'
p22
aVhttp://sfbay.craigslist.org/sfc/roo/4360580843.html
p23
aVhttp://sfbay.craigslist.org/sfc/roo/4372282250.html
p24
aVhttp://sfbay.craigslist.org/sfc/apa/4411944561.html
p25
aVhttp://sfbay.craigslist.org/sfc/sub/4390461919.html
p26
aVhttp://sfbay.craigslist.org/sfc/apa/4373342282.html
p27
aVhttp://sfbay.craigslist.org/sfc/roo/4401795756.html
p28
aVhttp://sfbay.craigslist.org/sfc/sub/4408785962.html
p29
aVhttp://sfbay.craigslist.org/sfc/sha/4399431776.html
p30
aVhttp://sfbay.craigslist.org/sfc/roo/4405550864.html
p31
aVhttp://sfbay.craigslist.org/sfc/roo/4398124630.html
p32
aVhttp://sfbay.craigslist.org/sfc/roo/4399888756.html
p33
aS'hrwmm-4407081888@hous.craigslist.org'
p34
aVhttp://sfbay.craigslist.org/sfc/sub/4390457153.html
p35
aVhttp://sfbay.craigslist.org/sfc/roo/4401221164.html
p36
aVhttp://sfbay.craigslist.org/sfc/apa/4407056919.html
p37
aVhttp://sfbay.craigslist.org/sfc/roo/4401176530.html
p38
aVhttp://sfbay.craigslist.org/sfc/roo/4394218978.html
p39
aVhttp://sfbay.craigslist.org/sfc/roo/4407106051.html
p40
aS'kwvbr-4407992198@hous.craigslist.org'
p41
aS'zwfzr-4412643027@hous.craigslist.org'
p42
aS'nreilly413@gmail.com'
p43
aVhttp://sfbay.craigslist.org/sfc/roo/4403052874.html
p44
aVhttp://sfbay.craigslist.org/sfc/apa/4402566604.html
p45
aVhttp://sfbay.craigslist.org/sfc/apa/4408697484.html
p46
aVhttp://sfbay.craigslist.org/sfc/roo/4393341074.html
p47
aVhttp://sfbay.craigslist.org/sfc/roo/4394032405.html
p48
aVhttp://sfbay.craigslist.org/sfc/apa/4407393559.html
p49
aVhttp://sfbay.craigslist.org/sfc/apa/4365085329.html
p50
aVhttp://sfbay.craigslist.org/sfc/apa/4403234510.html
p51
aVhttp://sfbay.craigslist.org/sfc/roo/4400031319.html
p52
aS'kaya@skyboxrealty.com'
p53
aS'fhgps-4412923178@hous.craigslist.org'
p54
aVhttp://sfbay.craigslist.org/sfc/sub/4398529466.html
p55
aVhttp://sfbay.craigslist.org/sfc/sha/4401283722.html
p56
aS'f6vjd-4411752629@hous.craigslist.org'
p57
aVhttp://sfbay.craigslist.org/sfc/apa/4376251610.html
p58
aVhttp://sfbay.craigslist.org/sfc/roo/4401757703.html
p59
aVhttp://sfbay.craigslist.org/sfc/roo/4403336467.html
p60
aVhttp://sfbay.craigslist.org/sfc/apa/4410467926.html
p61
aVhttp://sfbay.craigslist.org/sfc/apa/4404080787.html
p62
aVhttp://sfbay.craigslist.org/sfc/roo/4401683160.html
p63
aS'gfz6x-4404253214@hous.craigslist.org'
p64
aVhttp://sfbay.craigslist.org/sfc/roo/4404078475.html
p65
aVhttp://sfbay.craigslist.org/sfc/apa/4405894420.html
p66
aVhttp://sfbay.craigslist.org/sfc/apa/4403040688.html
p67
aVhttp://sfbay.craigslist.org/sfc/sha/4398763994.html
p68
aVhttp://sfbay.craigslist.org/sfc/apa/4392590526.html
p69
aS'nggkj-4411237275@hous.craigslist.org'
p70
aS'tx46q-4397784008@hous.craigslist.org'
p71
aVhttp://sfbay.craigslist.org/sfc/roo/4410933864.html
p72
aVhttp://sfbay.craigslist.org/sfc/apa/4405975083.html
p73
aVhttp://sfbay.craigslist.org/sfc/sha/4412351540.html
p74
aS'wcxgx-4380877651@hous.craigslist.org'
p75
aVhttp://sfbay.craigslist.org/sfc/roo/4398658944.html
p76
aVhttp://sfbay.craigslist.org/sfc/roo/4380866407.html
p77
aVhttp://sfbay.craigslist.org/sfc/sub/4392204003.html
p78
aVhttp://sfbay.craigslist.org/sfc/sub/4388224696.html
p79
aVhttp://sfbay.craigslist.org/sfc/roo/4401731375.html
p80
aVhttp://sfbay.craigslist.org/sfc/roo/4404850840.html
p81
aVhttp://sfbay.craigslist.org/sfc/roo/4399585928.html
p82
aVhttp://sfbay.craigslist.org/sfc/apa/4402484432.html
p83
aVhttp://sfbay.craigslist.org/sfc/apa/4398528641.html
p84
aVhttp://sfbay.craigslist.org/sfc/roo/4408749759.html
p85
aS'prg1213@aol.com'
p86
aVhttp://sfbay.craigslist.org/sfc/roo/4399853255.html
p87
aS'leasing@333fremont.com'
p88
aVhttp://sfbay.craigslist.org/sfc/roo/4393051486.html
p89
aVhttp://sfbay.craigslist.org/sfc/sub/4407306228.html
p90
aS'3n62v-4376613637@hous.craigslist.org'
p91
aVhttp://sfbay.craigslist.org/sfc/hou/4399612187.html
p92
aVhttp://sfbay.craigslist.org/sfc/sub/4365267087.html
p93
aS'cm4d3-4398156555@hous.craigslist.org'
p94
aVhttp://sfbay.craigslist.org/sfc/roo/4404881786.html
p95
aVhttp://sfbay.craigslist.org/sfc/roo/4395252951.html
p96
aVhttp://sfbay.craigslist.org/sfc/roo/4396145340.html
p97
aVhttp://sfbay.craigslist.org/sfc/apa/4394681158.html
p98
aVhttp://sfbay.craigslist.org/sfc/roo/4409212496.html
p99
aVhttp://sfbay.craigslist.org/sfc/apa/4399140861.html
p100
aVhttp://sfbay.craigslist.org/sfc/sha/4410683150.html
p101
aVhttp://sfbay.craigslist.org/sfc/roo/4405592005.html
p102
aVhttp://sfbay.craigslist.org/sfc/hou/4399718392.html
p103
aVhttp://sfbay.craigslist.org/sfc/roo/4400196319.html
p104
aVhttp://sfbay.craigslist.org/sfc/sha/4407992237.html
p105
aVhttp://sfbay.craigslist.org/sfc/sub/4393525474.html
p106
aVhttp://sfbay.craigslist.org/sfc/roo/4408785173.html
p107
aVhttp://sfbay.craigslist.org/sfc/roo/4390058128.html
p108
aS'3wmwz-4388524514@hous.craigslist.org'
p109
aVhttp://sfbay.craigslist.org/sfc/sha/4400951661.html
p110
aVhttp://sfbay.craigslist.org/sfc/roo/4400538746.html
p111
aVhttp://sfbay.craigslist.org/sfc/apa/4399392889.html
p112
aS'dmfjk-4383378943@hous.craigslist.org'
p113
aVhttp://sfbay.craigslist.org/sfc/roo/4404459065.html
p114
aVhttp://sfbay.craigslist.org/sfc/roo/4385265886.html
p115
aVhttp://sfbay.craigslist.org/sfc/roo/4398529038.html
p116
aVhttp://sfbay.craigslist.org/sfc/roo/4395129213.html
p117
aVhttp://sfbay.craigslist.org/sfc/sbw/4397469839.html
p118
aVhttp://sfbay.craigslist.org/sfc/roo/4392492850.html
p119
aS'gmttv-4407882578@hous.craigslist.org'
p120
aS'hsbz9-4406510760@hous.craigslist.org'
p121
aVhttp://sfbay.craigslist.org/sfc/apa/4383868128.html
p122
aS'xkgp5-4405954576@hous.craigslist.org'
p123
aVhttp://sfbay.craigslist.org/sfc/apa/4400700158.html
p124
aVhttp://sfbay.craigslist.org/sfc/roo/4393753378.html
p125
aVhttp://sfbay.craigslist.org/sfc/sub/4404997895.html
p126
aS'info@pyleerealty.com'
p127
aVhttp://sfbay.craigslist.org/sfc/roo/4407335087.html
p128
aVhttp://sfbay.craigslist.org/sfc/apa/4406192488.html
p129
aVhttp://sfbay.craigslist.org/sfc/roo/4406453103.html
p130
aVhttp://sfbay.craigslist.org/sfc/sub/4393911009.html
p131
aVhttp://sfbay.craigslist.org/sfc/apa/4408624290.html
p132
aVhttp://sfbay.craigslist.org/sfc/roo/4402643809.html
p133
aVhttp://sfbay.craigslist.org/sfc/roo/4407165251.html
p134
aVhttp://sfbay.craigslist.org/sfc/roo/4409463697.html
p135
aVhttp://sfbay.craigslist.org/sfc/roo/4396307029.html
p136
aS'qpb6f-4407579107@hous.craigslist.org'
p137
aVhttp://sfbay.craigslist.org/sfc/apa/4407787033.html
p138
aVhttp://sfbay.craigslist.org/sfc/roo/4409021363.html
p139
aVhttp://sfbay.craigslist.org/sfc/sub/4407671885.html
p140
aVhttp://sfbay.craigslist.org/sfc/roo/4406127058.html
p141
aS'pfvbv-4405171218@hous.craigslist.org'
p142
aVhttp://sfbay.craigslist.org/sfc/roo/4395530172.html
p143
aVhttp://sfbay.craigslist.org/sfc/apa/4398383269.html
p144
aS'gkbrt-4379272819@hous.craigslist.org'
p145
aS'gxbgx-4385962227@hous.craigslist.org'
p146
aVhttp://sfbay.craigslist.org/sfc/sub/4403352964.html
p147
aS'mark@sfdreamleasing.com'
p148
aVhttp://sfbay.craigslist.org/sfc/sbw/4412148064.html
p149
aVhttp://sfbay.craigslist.org/sfc/apa/4375515994.html
p150
aVhttp://sfbay.craigslist.org/sfc/hou/4400151751.html
p151
aVhttp://sfbay.craigslist.org/sfc/roo/4392499031.html
p152
aS'p5fz4-4408920230@hous.craigslist.org'
p153
aS'fmxtp-4411646595@hous.craigslist.org'
p154
aS'wnrdx-4391261238@hous.craigslist.org'
p155
aVhttp://sfbay.craigslist.org/sfc/sub/4381377633.html
p156
aS'c3csd-4406808603@hous.craigslist.org'
p157
aVhttp://sfbay.craigslist.org/sfc/sha/4403714256.html
p158
aS'tfpck-4407074270@hous.craigslist.org'
p159
aS'8gjmq-4403256942@hous.craigslist.org'
p160
aVhttp://sfbay.craigslist.org/sfc/roo/4411588505.html
p161
aVhttp://sfbay.craigslist.org/sfc/sub/4403508377.html
p162
aVhttp://sfbay.craigslist.org/sfc/roo/4394965222.html
p163
aVhttp://sfbay.craigslist.org/sfc/roo/4400817696.html
p164
aVhttp://sfbay.craigslist.org/sfc/apa/4411693004.html
p165
aVhttp://sfbay.craigslist.org/sfc/sha/4401583167.html
p166
aS'fx5h2-4408562596@hous.craigslist.org'
p167
aVhttp://sfbay.craigslist.org/sfc/sha/4400153067.html
p168
aS'fpgkr-4403581423@hous.craigslist.org'
p169
aVhttp://sfbay.craigslist.org/sfc/sub/4398868726.html
p170
aVhttp://sfbay.craigslist.org/sfc/sub/4383708123.html
p171
aVhttp://sfbay.craigslist.org/sfc/roo/4394118345.html
p172
aVhttp://sfbay.craigslist.org/sfc/sub/4369093999.html
p173
aVhttp://sfbay.craigslist.org/sfc/roo/4397731497.html
p174
aVhttp://sfbay.craigslist.org/sfc/roo/4404827010.html
p175
aVhttp://sfbay.craigslist.org/sfc/sub/4384402578.html
p176
aVhttp://sfbay.craigslist.org/sfc/sub/4403240118.html
p177
aVhttp://sfbay.craigslist.org/sfc/roo/4412203200.html
p178
aVhttp://sfbay.craigslist.org/sfc/apa/4399873991.html
p179
aS'crt7w-4413681808@hous.craigslist.org'
p180
aVhttp://sfbay.craigslist.org/sfc/roo/4408841818.html
p181
aVhttp://sfbay.craigslist.org/sfc/apa/4406947658.html
p182
aVhttp://sfbay.craigslist.org/sfc/roo/4395723255.html
p183
aVhttp://sfbay.craigslist.org/sfc/roo/4390083981.html
p184
aVhttp://sfbay.craigslist.org/sfc/sub/4407881468.html
p185
aVhttp://sfbay.craigslist.org/sfc/roo/4411605961.html
p186
aVhttp://sfbay.craigslist.org/sfc/roo/4399897815.html
p187
aVhttp://sfbay.craigslist.org/sfc/sub/4394712040.html
p188
aVhttp://sfbay.craigslist.org/sfc/roo/4395087020.html
p189
aS't8wnp-4411002299@hous.craigslist.org'
p190
aS'rvzwj-4397786748@hous.craigslist.org'
p191
aVhttp://sfbay.craigslist.org/sfc/sbw/4401632988.html
p192
aVhttp://sfbay.craigslist.org/sfc/sub/4395202867.html
p193
aVhttp://sfbay.craigslist.org/sfc/sub/4393736903.html
p194
aS'wm4jc-4386483553@hous.craigslist.org'
p195
aVhttp://sfbay.craigslist.org/sfc/roo/4395263920.html
p196
aVhttp://sfbay.craigslist.org/sfc/apa/4402951480.html
p197
aVhttp://sfbay.craigslist.org/sfc/roo/4393815254.html
p198
aVhttp://sfbay.craigslist.org/sfc/apa/4398269534.html
p199
aVhttp://sfbay.craigslist.org/sfc/apa/4402797186.html
p200
aVhttp://sfbay.craigslist.org/sfc/apa/4405383248.html
p201
aVhttp://sfbay.craigslist.org/sfc/apa/4399239275.html
p202
aVhttp://sfbay.craigslist.org/sfc/roo/4354483786.html
p203
aS'masti.pahlbod@bhghome.com'
p204
aVhttp://sfbay.craigslist.org/sfc/apa/4403922351.html
p205
aVhttp://sfbay.craigslist.org/sfc/sub/4383708383.html
p206
aVhttp://sfbay.craigslist.org/sfc/roo/4399834977.html
p207
aS'rstdw-4401217512@hous.craigslist.org'
p208
aVhttp://sfbay.craigslist.org/sfc/apa/4408910118.html
p209
aVhttp://sfbay.craigslist.org/sfc/apa/4391777890.html
p210
aVhttp://sfbay.craigslist.org/sfc/roo/4390917401.html
p211
aS'tzbmr-4409159748@hous.craigslist.org'
p212
aS'bjtvc-4412012368@hous.craigslist.org'
p213
aVhttp://sfbay.craigslist.org/sfc/apa/4406823758.html
p214
aS'gpj2b-4412930607@hous.craigslist.org'
p215
aS'pfsn4-4370052240@hous.craigslist.org'
p216
aVhttp://sfbay.craigslist.org/sfc/roo/4356361289.html
p217
aVhttp://sfbay.craigslist.org/sfc/apa/4392989311.html
p218
aVhttp://sfbay.craigslist.org/sfc/sub/4393054416.html
p219
aS'4nnzq-4393361896@hous.craigslist.org'
p220
aVhttp://sfbay.craigslist.org/sfc/roo/4410494491.html
p221
aVhttp://sfbay.craigslist.org/sfc/roo/4397120209.html
p222
aVhttp://sfbay.craigslist.org/sfc/roo/4390935315.html
p223
aVhttp://sfbay.craigslist.org/sfc/apa/4402401113.html
p224
aS'kvhx5-4409956019@hous.craigslist.org'
p225
aVhttp://sfbay.craigslist.org/sfc/sub/4389994470.html
p226
aS'xdqtc-4404983785@hous.craigslist.org'
p227
aVhttp://sfbay.craigslist.org/sfc/sub/4401678447.html
p228
aVhttp://sfbay.craigslist.org/sfc/apa/4398058518.html
p229
aVhttp://sfbay.craigslist.org/sfc/roo/4412556027.html
p230
aVhttp://sfbay.craigslist.org/sfc/sub/4402614908.html
p231
aS'natalie@relisto.com'
p232
aVhttp://sfbay.craigslist.org/sfc/apa/4395342595.html
p233
aVhttp://sfbay.craigslist.org/sfc/apa/4399225167.html
p234
aVhttp://sfbay.craigslist.org/sfc/roo/4399147614.html
p235
aVhttp://sfbay.craigslist.org/sfc/apa/4407381592.html
p236
aVhttp://sfbay.craigslist.org/sfc/roo/4405570470.html
p237
aVhttp://sfbay.craigslist.org/sfc/roo/4399185958.html
p238
aVhttp://sfbay.craigslist.org/sfc/roo/4407281632.html
p239
aVhttp://sfbay.craigslist.org/sfc/sub/4393516707.html
p240
aVhttp://sfbay.craigslist.org/sfc/apa/4395416448.html
p241
aVhttp://sfbay.craigslist.org/sfc/roo/4403063319.html
p242
aVhttp://sfbay.craigslist.org/sfc/apa/4386914902.html
p243
aVhttp://sfbay.craigslist.org/sfc/roo/4393768425.html
p244
aVhttp://sfbay.craigslist.org/sfc/apa/4409919931.html
p245
aS'txf6t-4409926220@hous.craigslist.org'
p246
aVhttp://sfbay.craigslist.org/sfc/sub/4409305864.html
p247
aVhttp://sfbay.craigslist.org/sfc/apa/4409967864.html
p248
aVhttp://sfbay.craigslist.org/sfc/roo/4396706377.html
p249
aS'n8jjk-4412700849@hous.craigslist.org'
p250
aS'6nwhq-4401269162@hous.craigslist.org'
p251
aVhttp://sfbay.craigslist.org/sfc/apa/4410130983.html
p252
aVhttp://sfbay.craigslist.org/sfc/roo/4402920585.html
p253
aVhttp://sfbay.craigslist.org/sfc/roo/4372687217.html
p254
aVhttp://sfbay.craigslist.org/sfc/roo/4401662602.html
p255
aVhttp://sfbay.craigslist.org/sfc/sub/4365262196.html
p256
aVhttp://sfbay.craigslist.org/sfc/roo/4362064159.html
p257
aVhttp://sfbay.craigslist.org/sfc/apa/4395899995.html
p258
aS'7vnvt-4408508335@hous.craigslist.org'
p259
aVhttp://sfbay.craigslist.org/sfc/sub/4384406020.html
p260
aVhttp://sfbay.craigslist.org/sfc/apa/4394649997.html
p261
aVhttp://sfbay.craigslist.org/sfc/roo/4392614908.html
p262
aVhttp://sfbay.craigslist.org/sfc/roo/4410834496.html
p263
aS'rpmfc-4410162116@hous.craigslist.org'
p264
a.